target datalayout = "e-m:e-p270:32:32-p271:32:32-p272:64:64-i64:64-i128:128-f80:128-n8:16:32:64-S128"
target triple = "x86_64-pc-linux-gnu"

%struct.Aig_MmStep_t_ = type { i32, ptr, i32, ptr, i32, i32, ptr }

; Function Attrs: nounwind uwtable
define ptr @Aig_MmStepEntryFetch(ptr noundef %0, i32 noundef %1) #0 {
  %3 = alloca ptr, align 8
  %4 = alloca ptr, align 8
  %5 = alloca i32, align 4
  store ptr %0, ptr %4, align 8, !tbaa !44
  store i32 %1, ptr %5, align 4, !tbaa !3
  %6 = load i32, ptr %5, align 4, !tbaa !3
  %7 = icmp eq i32 %6, 0
  br i1 %7, label %8, label %9

8:                                                ; preds = %2
  store ptr null, ptr %3, align 8
  br label %86

9:                                                ; preds = %2
  %10 = load i32, ptr %5, align 4, !tbaa !3
  %11 = load ptr, ptr %4, align 8, !tbaa !44
  %12 = getelementptr inbounds nuw %struct.Aig_MmStep_t_, ptr %11, i32 0, i32 2
  %13 = load i32, ptr %12, align 8, !tbaa !51
  %14 = icmp sgt i32 %10, %13
  br i1 %14, label %15, label %77

15:                                               ; preds = %9
  %16 = load ptr, ptr %4, align 8, !tbaa !44
  %17 = getelementptr inbounds nuw %struct.Aig_MmStep_t_, ptr %16, i32 0, i32 5
  %18 = load i32, ptr %17, align 4, !tbaa !57
  %19 = load ptr, ptr %4, align 8, !tbaa !44
  %20 = getelementptr inbounds nuw %struct.Aig_MmStep_t_, ptr %19, i32 0, i32 4
  %21 = load i32, ptr %20, align 8, !tbaa !56
  %22 = icmp eq i32 %18, %21
  br i1 %22, label %23, label %53

23:                                               ; preds = %15
  %24 = load ptr, ptr %4, align 8, !tbaa !44
  %25 = getelementptr inbounds nuw %struct.Aig_MmStep_t_, ptr %24, i32 0, i32 4
  %26 = load i32, ptr %25, align 8, !tbaa !56
  %27 = mul nsw i32 %26, 2
  store i32 %27, ptr %25, align 8, !tbaa !56
  %28 = load ptr, ptr %4, align 8, !tbaa !44
  %29 = getelementptr inbounds nuw %struct.Aig_MmStep_t_, ptr %28, i32 0, i32 6
  %30 = load ptr, ptr %29, align 8, !tbaa !58
  %31 = icmp ne ptr %30, null
  br i1 %31, label %32, label %42

32:                                               ; preds = %23
  %33 = load ptr, ptr %4, align 8, !tbaa !44
  %34 = getelementptr inbounds nuw %struct.Aig_MmStep_t_, ptr %33, i32 0, i32 6
  %35 = load ptr, ptr %34, align 8, !tbaa !58
  %36 = load ptr, ptr %4, align 8, !tbaa !44
  %37 = getelementptr inbounds nuw %struct.Aig_MmStep_t_, ptr %36, i32 0, i32 4
  %38 = load i32, ptr %37, align 8, !tbaa !56
  %39 = sext i32 %38 to i64
  %40 = mul i64 8, %39
  %41 = call ptr @realloc(ptr noundef %35, i64 noundef %40) #9
  br label %49

42:                                               ; preds = %23
  %43 = load ptr, ptr %4, align 8, !tbaa !44
  %44 = getelementptr inbounds nuw %struct.Aig_MmStep_t_, ptr %43, i32 0, i32 4
  %45 = load i32, ptr %44, align 8, !tbaa !56
  %46 = sext i32 %45 to i64
  %47 = mul i64 8, %46
  %48 = call noalias ptr @malloc(i64 noundef %47) #8
  br label %49

49:                                               ; preds = %42, %32
  %50 = phi ptr [ %41, %32 ], [ %48, %42 ]
  %51 = load ptr, ptr %4, align 8, !tbaa !44
  %52 = getelementptr inbounds nuw %struct.Aig_MmStep_t_, ptr %51, i32 0, i32 6
  store ptr %50, ptr %52, align 8, !tbaa !58
  br label %53

53:                                               ; preds = %49, %15
  %54 = load i32, ptr %5, align 4, !tbaa !3
  %55 = sext i32 %54 to i64
  %56 = mul i64 1, %55
  %57 = call noalias ptr @malloc(i64 noundef %56) #8
  %58 = load ptr, ptr %4, align 8, !tbaa !44
  %59 = getelementptr inbounds nuw %struct.Aig_MmStep_t_, ptr %58, i32 0, i32 6
  %60 = load ptr, ptr %59, align 8, !tbaa !58
  %61 = load ptr, ptr %4, align 8, !tbaa !44
  %62 = getelementptr inbounds nuw %struct.Aig_MmStep_t_, ptr %61, i32 0, i32 5
  %63 = load i32, ptr %62, align 4, !tbaa !57
  %64 = add nsw i32 %63, 1
  store i32 %64, ptr %62, align 4, !tbaa !57
  %65 = sext i32 %63 to i64
  %66 = getelementptr inbounds ptr, ptr %60, i64 %65
  store ptr %57, ptr %66, align 8, !tbaa !24
  %67 = load ptr, ptr %4, align 8, !tbaa !44
  %68 = getelementptr inbounds nuw %struct.Aig_MmStep_t_, ptr %67, i32 0, i32 6
  %69 = load ptr, ptr %68, align 8, !tbaa !58
  %70 = load ptr, ptr %4, align 8, !tbaa !44
  %71 = getelementptr inbounds nuw %struct.Aig_MmStep_t_, ptr %70, i32 0, i32 5
  %72 = load i32, ptr %71, align 4, !tbaa !57
  %73 = sub nsw i32 %72, 1
  %74 = sext i32 %73 to i64
  %75 = getelementptr inbounds ptr, ptr %69, i64 %74
  %76 = load ptr, ptr %75, align 8, !tbaa !24
  store ptr %76, ptr %3, align 8
  br label %86

77:                                               ; preds = %9
  %78 = load ptr, ptr %4, align 8, !tbaa !44
  %79 = getelementptr inbounds nuw %struct.Aig_MmStep_t_, ptr %78, i32 0, i32 3
  %80 = load ptr, ptr %79, align 8, !tbaa !52
  %81 = load i32, ptr %5, align 4, !tbaa !3
  %82 = sext i32 %81 to i64
  %83 = getelementptr inbounds ptr, ptr %80, i64 %82
  %84 = load ptr, ptr %83, align 8, !tbaa !7
  %85 = call ptr @Aig_MmFixedEntryFetch(ptr noundef %84)
  store ptr %85, ptr %3, align 8
  br label %86

86:                                               ; preds = %77, %53, %8
  %87 = load ptr, ptr %3, align 8
  ret ptr %87
}